target datalayout = "e-m:e-p270:32:32-p271:32:32-p272:64:64-i64:64-i128:128-f80:128-n8:16:32:64-S128"
target triple = "x86_64-pc-linux-gnu"

%"class.icu_77::Hashtable" = type { ptr, %struct.UHashtable }
%struct.UHashtable = type { ptr, ptr, ptr, ptr, ptr, ptr, i32, i32, i32, i32, float, float, i8, i8 }
%"class.icu_77::TransliterationRuleData" = type { [8 x i8], %"class.icu_77::TransliterationRuleSet", %"class.icu_77::Hashtable", ptr, i8, i16, i32 }
%"class.icu_77::TransliterationRuleSet" = type { ptr, ptr, ptr, [257 x i32], i32 }
%"class.icu_77::UVector" = type { %"class.icu_77::UObject", i32, i32, ptr, ptr, ptr }
%"class.icu_77::UObject" = type { ptr }
%"class.icu_77::UnicodeString" = type { %"class.icu_77::Replaceable", %"union.icu_77::UnicodeString::StackBufferOrFields" }
%"class.icu_77::Replaceable" = type { %"class.icu_77::UObject" }
%"union.icu_77::UnicodeString::StackBufferOrFields" = type { %struct.anon.0, [32 x i8] }
%struct.anon.0 = type { i16, i32, i32, ptr }
%struct.anon = type { i16, [27 x i16] }
%"class.icu_77::TransliteratorParser" = type <{ [8 x i8], %"class.icu_77::UVector", %"class.icu_77::UVector", ptr, ptr, i32, %struct.UParseError, [4 x i8], ptr, %"class.icu_77::UVector", %"class.icu_77::Hashtable", %"class.icu_77::UnicodeString", %"class.icu_77::UVector", i16, i16, [4 x i8], %"class.icu_77::UnicodeString", i16, [6 x i8] }>
%struct.UParseError = type { i32, i32, [16 x i16], [16 x i16] }

; Function Attrs: inlinehint mustprogress nounwind uwtable
define linkonce_odr noundef ptr @_ZNK6icu_7713UnicodeString13getArrayStartEv(ptr noundef nonnull align 8 dereferenceable(64) %0) #2 comdat align 2 {
  %2 = alloca ptr, align 8
  store ptr %0, ptr %2, align 8, !tbaa !40
  %3 = load ptr, ptr %2, align 8
  %4 = getelementptr inbounds nuw %"class.icu_77::UnicodeString", ptr %3, i32 0, i32 1
  %5 = getelementptr inbounds nuw %struct.anon.0, ptr %4, i32 0, i32 0
  %6 = load i16, ptr %5, align 8, !tbaa !68
  %7 = sext i16 %6 to i32
  %8 = and i32 %7, 2
  %9 = icmp ne i32 %8, 0
  br i1 %9, label %10, label %14

10:                                               ; preds = %1
  %11 = getelementptr inbounds nuw %"class.icu_77::UnicodeString", ptr %3, i32 0, i32 1
  %12 = getelementptr inbounds nuw %struct.anon, ptr %11, i32 0, i32 1
  %13 = getelementptr inbounds [27 x i16], ptr %12, i64 0, i64 0
  br label %18

14:                                               ; preds = %1
  %15 = getelementptr inbounds nuw %"class.icu_77::UnicodeString", ptr %3, i32 0, i32 1
  %16 = getelementptr inbounds nuw %struct.anon.0, ptr %15, i32 0, i32 3
  %17 = load ptr, ptr %16, align 8, !tbaa !68
  br label %18

18:                                               ; preds = %14, %10
  %19 = phi ptr [ %13, %10 ], [ %17, %14 ]
  ret ptr %19
}

; Function Attrs: inlinehint mustprogress uwtable
define linkonce_odr noundef zeroext i16 @_ZNK6icu_7713UnicodeString8doCharAtEi(ptr noundef nonnull align 8 dereferenceable(64) %0, i32 noundef %1) #3 comdat align 2 {
  %3 = alloca i16, align 2
  %4 = alloca ptr, align 8
  %5 = alloca i32, align 4
  store ptr %0, ptr %4, align 8, !tbaa !40
  store i32 %1, ptr %5, align 4, !tbaa !14
  %6 = load ptr, ptr %4, align 8
  %7 = load i32, ptr %5, align 4, !tbaa !14
  %8 = call noundef i32 @_ZNK6icu_7713UnicodeString6lengthEv(ptr noundef nonnull align 8 dereferenceable(64) %6)
  %9 = icmp ult i32 %7, %8
  br i1 %9, label %10, label %16

10:                                               ; preds = %2
  %11 = call noundef ptr @_ZNK6icu_7713UnicodeString13getArrayStartEv(ptr noundef nonnull align 8 dereferenceable(64) %6)
  %12 = load i32, ptr %5, align 4, !tbaa !14
  %13 = sext i32 %12 to i64
  %14 = getelementptr inbounds i16, ptr %11, i64 %13
  %15 = load i16, ptr %14, align 2, !tbaa !63
  store i16 %15, ptr %3, align 2
  br label %17

16:                                               ; preds = %2
  store i16 -1, ptr %3, align 2
  br label %17

17:                                               ; preds = %16, %10
  %18 = load i16, ptr %3, align 2
  ret i16 %18
}

; Function Attrs: inlinehint mustprogress nounwind uwtable
define linkonce_odr noundef i32 @_ZNK6icu_7713UnicodeString14getShortLengthEv(ptr noundef nonnull align 8 dereferenceable(64) %0) #2 comdat align 2 {
  %2 = alloca ptr, align 8
  store ptr %0, ptr %2, align 8, !tbaa !40
  %3 = load ptr, ptr %2, align 8
  %4 = getelementptr inbounds nuw %"class.icu_77::UnicodeString", ptr %3, i32 0, i32 1
  %5 = getelementptr inbounds nuw %struct.anon.0, ptr %4, i32 0, i32 0
  %6 = load i16, ptr %5, align 8, !tbaa !68
  %7 = sext i16 %6 to i32
  %8 = ashr i32 %7, 5
  ret i32 %8
}

; Function Attrs: inlinehint mustprogress nounwind uwtable
define linkonce_odr noundef signext i8 @_ZNK6icu_7713UnicodeString14hasShortLengthEv(ptr noundef nonnull align 8 dereferenceable(64) %0) #2 comdat align 2 {
  %2 = alloca ptr, align 8
  store ptr %0, ptr %2, align 8, !tbaa !40
  %3 = load ptr, ptr %2, align 8
  %4 = getelementptr inbounds nuw %"class.icu_77::UnicodeString", ptr %3, i32 0, i32 1
  %5 = getelementptr inbounds nuw %struct.anon.0, ptr %4, i32 0, i32 0
  %6 = load i16, ptr %5, align 8, !tbaa !68
  %7 = sext i16 %6 to i32
  %8 = icmp sge i32 %7, 0
  %9 = zext i1 %8 to i8
  ret i8 %9
}

; Function Attrs: inlinehint mustprogress uwtable
define linkonce_odr noundef zeroext i16 @_ZNK6icu_7713UnicodeString6charAtEi(ptr noundef nonnull align 8 dereferenceable(64) %0, i32 noundef %1) #3 comdat align 2 {
  %3 = alloca ptr, align 8
  %4 = alloca i32, align 4
  store ptr %0, ptr %3, align 8, !tbaa !40
  store i32 %1, ptr %4, align 4, !tbaa !14
  %5 = load ptr, ptr %3, align 8
  %6 = load i32, ptr %4, align 4, !tbaa !14
  %7 = call noundef zeroext i16 @_ZNK6icu_7713UnicodeString8doCharAtEi(ptr noundef nonnull align 8 dereferenceable(64) %5, i32 noundef %6)
  ret i16 %7
}

; Function Attrs: inlinehint mustprogress uwtable
define linkonce_odr noundef nonnull align 8 dereferenceable(64) ptr @_ZN6icu_7713UnicodeString6appendEDs(ptr noundef nonnull align 8 dereferenceable(64) %0, i16 noundef zeroext %1) #3 comdat align 2 {
  %3 = alloca ptr, align 8
  %4 = alloca i16, align 2
  store ptr %0, ptr %3, align 8, !tbaa !40
  store i16 %1, ptr %4, align 2, !tbaa !63
  %5 = load ptr, ptr %3, align 8
  %6 = call noundef nonnull align 8 dereferenceable(64) ptr @_ZN6icu_7713UnicodeString8doAppendEPKDsii(ptr noundef nonnull align 8 dereferenceable(64) %5, ptr noundef %4, i32 noundef 0, i32 noundef 1)
  ret ptr %6
}

; Function Attrs: inlinehint mustprogress uwtable
define linkonce_odr noundef i32 @_ZNK6icu_7713UnicodeString6lengthEv(ptr noundef nonnull align 8 dereferenceable(64) %0) #3 comdat align 2 {
  %2 = alloca ptr, align 8
  store ptr %0, ptr %2, align 8, !tbaa !40
  %3 = load ptr, ptr %2, align 8
  %4 = call noundef signext i8 @_ZNK6icu_7713UnicodeString14hasShortLengthEv(ptr noundef nonnull align 8 dereferenceable(64) %3)
  %5 = icmp ne i8 %4, 0
  br i1 %5, label %6, label %8

6:                                                ; preds = %1
  %7 = call noundef i32 @_ZNK6icu_7713UnicodeString14getShortLengthEv(ptr noundef nonnull align 8 dereferenceable(64) %3)
  br label %12

8:                                                ; preds = %1
  %9 = getelementptr inbounds nuw %"class.icu_77::UnicodeString", ptr %3, i32 0, i32 1
  %10 = getelementptr inbounds nuw %struct.anon.0, ptr %9, i32 0, i32 1
  %11 = load i32, ptr %10, align 4, !tbaa !68
  br label %12

12:                                               ; preds = %8, %6
  %13 = phi i32 [ %7, %6 ], [ %11, %8 ]
  ret i32 %13
}

; Function Attrs: mustprogress uwtable
define noundef zeroext i16 @_ZN6icu_7720TransliteratorParser17getSegmentStandinEiR10UErrorCode(ptr noundef nonnull align 8 dereferenceable(498) %0, i32 noundef %1, ptr noundef nonnull align 4 dereferenceable(4) %2) #1 align 2 {
  %4 = alloca i16, align 2
  %5 = alloca ptr, align 8
  %6 = alloca i32, align 4
  %7 = alloca ptr, align 8
  %8 = alloca i16, align 2
  %9 = alloca i16, align 2
  %10 = alloca i32, align 4
  store ptr %0, ptr %5, align 8, !tbaa !71
  store i32 %1, ptr %6, align 4, !tbaa !14
  store ptr %2, ptr %7, align 8, !tbaa !22
  %11 = load ptr, ptr %5, align 8
  call void @llvm.lifetime.start.p0(i64 2, ptr %8) #11
  %12 = getelementptr inbounds nuw %"class.icu_77::TransliteratorParser", ptr %11, i32 0, i32 4
  %13 = load ptr, ptr %12, align 8, !tbaa !88
  %14 = getelementptr inbounds nuw %"class.icu_77::TransliterationRuleData", ptr %13, i32 0, i32 5
  %15 = load i16, ptr %14, align 2, !tbaa !50
  %16 = zext i16 %15 to i32
  %17 = sub nsw i32 %16, 1
  %18 = trunc i32 %17 to i16
  store i16 %18, ptr %8, align 2, !tbaa !63
  br label %19

19:                                               ; preds = %24, %3
  %20 = getelementptr inbounds nuw %"class.icu_77::TransliteratorParser", ptr %11, i32 0, i32 11
  %21 = call noundef i32 @_ZNK6icu_7713UnicodeString6lengthEv(ptr noundef nonnull align 8 dereferenceable(64) %20)
  %22 = load i32, ptr %6, align 4, !tbaa !14
  %23 = icmp slt i32 %21, %22
  br i1 %23, label %24, label %28

24:                                               ; preds = %19
  %25 = getelementptr inbounds nuw %"class.icu_77::TransliteratorParser", ptr %11, i32 0, i32 11
  %26 = load i16, ptr %8, align 2, !tbaa !63
  %27 = call noundef nonnull align 8 dereferenceable(64) ptr @_ZN6icu_7713UnicodeString6appendEDs(ptr noundef nonnull align 8 dereferenceable(64) %25, i16 noundef zeroext %26)
  br label %19, !llvm.loop !112

28:                                               ; preds = %19
  call void @llvm.lifetime.start.p0(i64 2, ptr %9) #11
  %29 = getelementptr inbounds nuw %"class.icu_77::TransliteratorParser", ptr %11, i32 0, i32 11
  %30 = load i32, ptr %6, align 4, !tbaa !14
  %31 = sub nsw i32 %30, 1
  %32 = call noundef zeroext i16 @_ZNK6icu_7713UnicodeString6charAtEi(ptr noundef nonnull align 8 dereferenceable(64) %29, i32 noundef %31)
  store i16 %32, ptr %9, align 2, !tbaa !63
  %33 = load i16, ptr %9, align 2, !tbaa !63
  %34 = zext i16 %33 to i32
  %35 = load i16, ptr %8, align 2, !tbaa !63
  %36 = zext i16 %35 to i32
  %37 = icmp eq i32 %34, %36
  br i1 %37, label %38, label %59

38:                                               ; preds = %28
  %39 = getelementptr inbounds nuw %"class.icu_77::TransliteratorParser", ptr %11, i32 0, i32 13
  %40 = load i16, ptr %39, align 8, !tbaa !113
  %41 = zext i16 %40 to i32
  %42 = getelementptr inbounds nuw %"class.icu_77::TransliteratorParser", ptr %11, i32 0, i32 14
  %43 = load i16, ptr %42, align 2, !tbaa !111
  %44 = zext i16 %43 to i32
  %45 = icmp sge i32 %41, %44
  br i1 %45, label %46, label %48

46:                                               ; preds = %38
  %47 = load ptr, ptr %7, align 8, !tbaa !22
  store i32 65565, ptr %47, align 4, !tbaa !15
  store i16 0, ptr %4, align 2
  store i32 1, ptr %10, align 4
  br label %61

48:                                               ; preds = %38
  %49 = getelementptr inbounds nuw %"class.icu_77::TransliteratorParser", ptr %11, i32 0, i32 13
  %50 = load i16, ptr %49, align 8, !tbaa !113
  %51 = add i16 %50, 1
  store i16 %51, ptr %49, align 8, !tbaa !113
  store i16 %50, ptr %9, align 2, !tbaa !63
  %52 = getelementptr inbounds nuw %"class.icu_77::TransliteratorParser", ptr %11, i32 0, i32 9
  %53 = load ptr, ptr %7, align 8, !tbaa !22
  call void @_ZN6icu_777UVector10addElementEPvR10UErrorCode(ptr noundef nonnull align 8 dereferenceable(40) %52, ptr noundef null, ptr noundef nonnull align 4 dereferenceable(4) %53)
  %54 = getelementptr inbounds nuw %"class.icu_77::TransliteratorParser", ptr %11, i32 0, i32 11
  %55 = load i32, ptr %6, align 4, !tbaa !14
  %56 = sub nsw i32 %55, 1
  %57 = load i16, ptr %9, align 2, !tbaa !63
  %58 = call noundef nonnull align 8 dereferenceable(64) ptr @_ZN6icu_7713UnicodeString9setCharAtEiDs(ptr noundef nonnull align 8 dereferenceable(64) %54, i32 noundef %56, i16 noundef zeroext %57)
  br label %59

59:                                               ; preds = %48, %28
  %60 = load i16, ptr %9, align 2, !tbaa !63
  store i16 %60, ptr %4, align 2
  store i32 1, ptr %10, align 4
  br label %61

61:                                               ; preds = %59, %46
  call void @llvm.lifetime.end.p0(i64 2, ptr %9) #11
  call void @llvm.lifetime.end.p0(i64 2, ptr %8) #11
  %62 = load i16, ptr %4, align 2
  ret i16 %62
}