; Function Attrs: mustprogress uwtable
define noundef zeroext i16 @_ZN6icu_7720TransliteratorParser17getSegmentStandinEiR10UErrorCode(ptr noundef nonnull align 8 dereferenceable(498) %0, i32 noundef %1, ptr noundef nonnull align 4 dereferenceable(4) %2) local_unnamed_addr #1 align 2 {
  %4 = alloca i16, align 2
  %5 = getelementptr inbounds nuw i8, ptr %0, i64 96
  %6 = load ptr, ptr %5, align 8, !tbaa !66
  %7 = getelementptr inbounds nuw i8, ptr %6, i64 1162
  %8 = load i16, ptr %7, align 2, !tbaa !31
  %9 = add i16 %8, -1
  %10 = getelementptr inbounds nuw i8, ptr %0, i64 320
  %11 = getelementptr inbounds nuw i8, ptr %0, i64 328
  %12 = getelementptr inbounds nuw i8, ptr %0, i64 332
  %13 = load i16, ptr %11, align 8, !tbaa !44
  %14 = icmp slt i16 %13, 0
  %15 = ashr i16 %13, 5
  %16 = sext i16 %15 to i32
  %17 = load i32, ptr %12, align 4
  %18 = select i1 %14, i32 %17, i32 %16
  %19 = icmp slt i32 %18, %1
  br i1 %19, label %.lr.ph, label %._crit_edge

.lr.ph:                                           ; preds = %3, %.lr.ph
  call void @llvm.lifetime.start.p0(i64 2, ptr nonnull %4)
  store i16 %9, ptr %4, align 2, !tbaa !45
  %20 = call noundef nonnull align 8 dereferenceable(64) ptr @_ZN6icu_7713UnicodeString8doAppendEPKDsii(ptr noundef nonnull align 8 dereferenceable(64) %10, ptr noundef nonnull %4, i32 noundef 0, i32 noundef 1)
  call void @llvm.lifetime.end.p0(i64 2, ptr nonnull %4)
  %21 = load i16, ptr %11, align 8, !tbaa !44
  %22 = icmp slt i16 %21, 0
  %23 = ashr i16 %21, 5
  %24 = sext i16 %23 to i32
  %25 = load i32, ptr %12, align 4
  %26 = select i1 %22, i32 %25, i32 %24
  %27 = icmp slt i32 %26, %1
  br i1 %27, label %.lr.ph, label %._crit_edge, !llvm.loop !78

._crit_edge:                                      ; preds = %.lr.ph, %3
  %.lcssa13 = phi i16 [ %13, %3 ], [ %21, %.lr.ph ]
  %.lcssa = phi i32 [ %18, %3 ], [ %26, %.lr.ph ]
  %28 = add nsw i32 %1, -1
  %29 = icmp ult i32 %28, %.lcssa
  br i1 %29, label %30, label %_ZNK6icu_7713UnicodeString6charAtEi.exit

30:                                               ; preds = %._crit_edge
  %31 = and i16 %.lcssa13, 2
  %.not.i.i.i = icmp eq i16 %31, 0
  %32 = getelementptr inbounds nuw i8, ptr %0, i64 330
  %33 = getelementptr inbounds nuw i8, ptr %0, i64 344
  %34 = load ptr, ptr %33, align 8
  %35 = select i1 %.not.i.i.i, ptr %34, ptr %32
  %36 = sext i32 %28 to i64
  %37 = getelementptr inbounds i16, ptr %35, i64 %36
  %38 = load i16, ptr %37, align 2, !tbaa !45
  br label %_ZNK6icu_7713UnicodeString6charAtEi.exit

_ZNK6icu_7713UnicodeString6charAtEi.exit:         ; preds = %._crit_edge, %30
  %.0.i.i = phi i16 [ %38, %30 ], [ -1, %._crit_edge ]
  %39 = icmp eq i16 %.0.i.i, %9
  br i1 %39, label %40, label %50

40:                                               ; preds = %_ZNK6icu_7713UnicodeString6charAtEi.exit
  %41 = getelementptr inbounds nuw i8, ptr %0, i64 424
  %42 = load i16, ptr %41, align 8, !tbaa !76
  %43 = getelementptr inbounds nuw i8, ptr %0, i64 426
  %44 = load i16, ptr %43, align 2, !tbaa !77
  %.not = icmp ult i16 %42, %44
  br i1 %.not, label %46, label %45

45:                                               ; preds = %40
  store i32 65565, ptr %2, align 4, !tbaa !13
  br label %50

46:                                               ; preds = %40
  %47 = add nuw i16 %42, 1
  store i16 %47, ptr %41, align 8, !tbaa !76
  %48 = getelementptr inbounds nuw i8, ptr %0, i64 192
  call void @_ZN6icu_777UVector10addElementEPvR10UErrorCode(ptr noundef nonnull align 8 dereferenceable(40) %48, ptr noundef null, ptr noundef nonnull align 4 dereferenceable(4) %2)
  %49 = call noundef nonnull align 8 dereferenceable(64) ptr @_ZN6icu_7713UnicodeString9setCharAtEiDs(ptr noundef nonnull align 8 dereferenceable(64) %10, i32 noundef %28, i16 noundef zeroext %42)
  br label %50

50:                                               ; preds = %_ZNK6icu_7713UnicodeString6charAtEi.exit, %46, %45
  %.011 = phi i16 [ 0, %45 ], [ %42, %46 ], [ %.0.i.i, %_ZNK6icu_7713UnicodeString6charAtEi.exit ]
  ret i16 %.011
}